; Function Attrs: nounwind sspstrong uwtable
define internal range(i32 -2147483640, -2147483648) i32 @riscv_gdb_get_vector(ptr noundef %0, ptr noundef %1, i32 noundef %2) #0 {
  %4 = alloca i64, align 8
  %5 = tail call ptr @object_dynamic_cast_assert(ptr noundef %0, ptr noundef nonnull @.str.5, ptr noundef nonnull @.str.6, i32 noundef 56, ptr noundef nonnull @__func__.RISCV_CPU) #7
  %6 = icmp slt i32 %2, 32
  br i1 %6, label %.preheader, label %.loopexit

.preheader:                                       ; preds = %3
  %7 = getelementptr inbounds nuw i8, ptr %5, i64 16632
  %8 = load i16, ptr %7, align 8
  %9 = zext i16 %8 to i32
  %.not = icmp eq i16 %8, 0
  br i1 %.not, label %.loopexit, label %.lr.ph

.lr.ph:                                           ; preds = %.preheader
  %10 = getelementptr inbounds nuw i8, ptr %5, i64 11712
  %11 = mul i32 %2, %9
  %12 = add nsw i32 %9, -1
  %13 = and i32 %12, -8
  br label %14

14:                                               ; preds = %.lr.ph, %14
  %.019 = phi i32 [ 0, %.lr.ph ], [ %21, %14 ]
  %15 = add i32 %.019, %11
  %16 = sdiv i32 %15, 8
  %17 = sext i32 %16 to i64
  %18 = getelementptr inbounds [512 x i64], ptr %10, i64 0, i64 %17
  %19 = load i64, ptr %18, align 8
  call void @llvm.lifetime.start.p0(i64 8, ptr nonnull %4) #7
  store i64 %19, ptr %4, align 8
  %20 = call ptr @g_byte_array_append(ptr noundef %1, ptr noundef nonnull %4, i32 noundef 8) #7
  call void @llvm.lifetime.end.p0(i64 8, ptr nonnull %4) #7
  %21 = add nuw nsw i32 %.019, 8
  %22 = icmp samesign ult i32 %21, %9
  br i1 %22, label %14, label %.loopexit.loopexit, !llvm.loop !12

.loopexit.loopexit:                               ; preds = %14
  %23 = add nsw i32 %13, 8
  br label %.loopexit

.loopexit:                                        ; preds = %.loopexit.loopexit, %.preheader, %3
  %.015 = phi i32 [ 0, %3 ], [ 0, %.preheader ], [ %23, %.loopexit.loopexit ]
  ret i32 %.015
}